; Function Attrs: mustprogress nounwind willreturn uwtable
define void @_ZN3g2o6SolverD2Ev(ptr noundef nonnull align 8 captures(none) dereferenceable(64) initializes((0, 8)) %0) unnamed_addr #5 align 2 personality ptr @__gxx_personality_v0 {
  store ptr getelementptr inbounds nuw inrange(-16, 128) (i8, ptr @_ZTVN3g2o6SolverE, i64 16), ptr %0, align 8, !tbaa !3
  %2 = getelementptr inbounds nuw i8, ptr %0, i64 16
  %3 = load ptr, ptr %2, align 8, !tbaa !14
  tail call void @free(ptr noundef %3) #16
  %4 = getelementptr inbounds nuw i8, ptr %0, i64 24
  %5 = load ptr, ptr %4, align 8, !tbaa !15
  tail call void @free(ptr noundef %5) #16
  ret void
}